target datalayout = "e-m:e-p270:32:32-p271:32:32-p272:64:64-i64:64-i128:128-f80:128-n8:16:32:64-S128"
target triple = "x86_64-pc-linux-gnu"

%"struct.pxrInternal_v0_24__pxrReserved__::HgiComputeShaderConstantsDesc" = type { i32 }
%"struct.pxrInternal_v0_24__pxrReserved__::HgiComputePipelineDesc" = type <{ %"class.std::__cxx11::basic_string", %"class.pxrInternal_v0_24__pxrReserved__::HgiHandle", %"struct.pxrInternal_v0_24__pxrReserved__::HgiComputeShaderConstantsDesc", [4 x i8] }>
%"class.std::__cxx11::basic_string" = type { %"struct.std::__cxx11::basic_string<char>::_Alloc_hider", i64, %union.anon }
%"struct.std::__cxx11::basic_string<char>::_Alloc_hider" = type { ptr }
%union.anon = type { i64, [8 x i8] }
%"class.pxrInternal_v0_24__pxrReserved__::HgiHandle" = type { ptr, i64 }

@_ZN32pxrInternal_v0_24__pxrReserved__29HgiComputeShaderConstantsDescC1Ev = unnamed_addr alias void (ptr), ptr @_ZN32pxrInternal_v0_24__pxrReserved__29HgiComputeShaderConstantsDescC2Ev

; Function Attrs: mustprogress nounwind uwtable
define linkonce_odr void @_ZN32pxrInternal_v0_24__pxrReserved__9HgiHandleINS_16HgiShaderProgramEEC2Ev(ptr noundef nonnull align 8 dereferenceable(16) %0) unnamed_addr #0 comdat align 2 {
  %2 = alloca ptr, align 8
  store ptr %0, ptr %2, align 8
  %3 = load ptr, ptr %2, align 8
  %4 = getelementptr inbounds nuw %"class.pxrInternal_v0_24__pxrReserved__::HgiHandle", ptr %3, i32 0, i32 0
  store ptr null, ptr %4, align 8
  %5 = getelementptr inbounds nuw %"class.pxrInternal_v0_24__pxrReserved__::HgiHandle", ptr %3, i32 0, i32 1
  store i64 0, ptr %5, align 8
  ret void
}

; Function Attrs: mustprogress uwtable
define void @_ZN32pxrInternal_v0_24__pxrReserved__22HgiComputePipelineDescC2Ev(ptr noundef nonnull align 8 dereferenceable(52) %0) unnamed_addr #1 align 2 personality ptr @__gxx_personality_v0 {
  %2 = alloca ptr, align 8
  %3 = alloca ptr, align 8
  %4 = alloca i32, align 4
  store ptr %0, ptr %2, align 8
  %5 = load ptr, ptr %2, align 8
  %6 = getelementptr inbounds nuw %"struct.pxrInternal_v0_24__pxrReserved__::HgiComputePipelineDesc", ptr %5, i32 0, i32 0
  call void @_ZNSt7__cxx1112basic_stringIcSt11char_traitsIcESaIcEEC1Ev(ptr noundef nonnull align 8 dereferenceable(32) %6) #7
  %7 = getelementptr inbounds nuw %"struct.pxrInternal_v0_24__pxrReserved__::HgiComputePipelineDesc", ptr %5, i32 0, i32 1
  invoke void @_ZN32pxrInternal_v0_24__pxrReserved__9HgiHandleINS_16HgiShaderProgramEEC2Ev(ptr noundef nonnull align 8 dereferenceable(16) %7)
          to label %8 unwind label %11

8:                                                ; preds = %1
  %9 = getelementptr inbounds nuw %"struct.pxrInternal_v0_24__pxrReserved__::HgiComputePipelineDesc", ptr %5, i32 0, i32 2
  invoke void @_ZN32pxrInternal_v0_24__pxrReserved__29HgiComputeShaderConstantsDescC1Ev(ptr noundef nonnull align 4 dereferenceable(4) %9)
          to label %10 unwind label %11

10:                                               ; preds = %8
  ret void

11:                                               ; preds = %8, %1
  %12 = landingpad { ptr, i32 }
          cleanup
  %13 = extractvalue { ptr, i32 } %12, 0
  store ptr %13, ptr %3, align 8
  %14 = extractvalue { ptr, i32 } %12, 1
  store i32 %14, ptr %4, align 4
  call void @_ZNSt7__cxx1112basic_stringIcSt11char_traitsIcESaIcEED1Ev(ptr noundef nonnull align 8 dereferenceable(32) %6) #7
  br label %15

15:                                               ; preds = %11
  %16 = load ptr, ptr %3, align 8
  %17 = load i32, ptr %4, align 4
  %18 = insertvalue { ptr, i32 } poison, ptr %16, 0
  %19 = insertvalue { ptr, i32 } %18, i32 %17, 1
  resume { ptr, i32 } %19
}